target datalayout = "e-m:e-p270:32:32-p271:32:32-p272:64:64-i64:64-i128:128-f80:128-n8:16:32:64-S128"
target triple = "x86_64-pc-linux-gnu"

%struct.yy_buffer_state = type { ptr, ptr, ptr, i32, i32, i32, i32, i32, i32, i32, i32, i32 }

@H5LTyyin = global ptr null, align 8
@yy_buffer_stack = internal global ptr null, align 8
@yy_buffer_stack_top = internal global i64 0, align 8
@yy_c_buf_p = internal global ptr null, align 8
@yy_hold_char = internal global i8 0, align 1
@H5LTyytext = global ptr null, align 8
@yy_n_chars = internal global i32 0, align 4
@.str.1 = private unnamed_addr constant [44 x i8] c"out of dynamic memory in yy_create_buffer()\00", align 1
@.str.9 = private unnamed_addr constant [49 x i8] c"out of dynamic memory in yyensure_buffer_stack()\00", align 1
@yy_buffer_stack_max = internal global i64 0, align 8

; Function Attrs: nounwind uwtable
define ptr @H5LTyyrealloc(ptr noundef %0, i64 noundef %1) #0 {
  %3 = alloca ptr, align 8
  %4 = alloca i64, align 8
  store ptr %0, ptr %3, align 8
  store i64 %1, ptr %4, align 8
  %5 = load ptr, ptr %3, align 8
  %6 = load i64, ptr %4, align 8
  %7 = call ptr @realloc(ptr noundef %5, i64 noundef %6) #17
  ret ptr %7
}

; Function Attrs: nounwind uwtable
define ptr @H5LTyyalloc(i64 noundef %0) #0 {
  %2 = alloca i64, align 8
  store i64 %0, ptr %2, align 8
  %3 = load i64, ptr %2, align 8
  %4 = call noalias ptr @malloc(i64 noundef %3) #16
  ret ptr %4
}

; Function Attrs: nounwind uwtable
define internal void @H5LTyy_load_buffer_state() #0 {
  %1 = load ptr, ptr @yy_buffer_stack, align 8
  %2 = load i64, ptr @yy_buffer_stack_top, align 8
  %3 = getelementptr inbounds ptr, ptr %1, i64 %2
  %4 = load ptr, ptr %3, align 8
  %5 = getelementptr inbounds %struct.yy_buffer_state, ptr %4, i32 0, i32 4
  %6 = load i32, ptr %5, align 4
  store i32 %6, ptr @yy_n_chars, align 4
  %7 = load ptr, ptr @yy_buffer_stack, align 8
  %8 = load i64, ptr @yy_buffer_stack_top, align 8
  %9 = getelementptr inbounds ptr, ptr %7, i64 %8
  %10 = load ptr, ptr %9, align 8
  %11 = getelementptr inbounds %struct.yy_buffer_state, ptr %10, i32 0, i32 2
  %12 = load ptr, ptr %11, align 8
  store ptr %12, ptr @yy_c_buf_p, align 8
  store ptr %12, ptr @H5LTyytext, align 8
  %13 = load ptr, ptr @yy_buffer_stack, align 8
  %14 = load i64, ptr @yy_buffer_stack_top, align 8
  %15 = getelementptr inbounds ptr, ptr %13, i64 %14
  %16 = load ptr, ptr %15, align 8
  %17 = getelementptr inbounds %struct.yy_buffer_state, ptr %16, i32 0, i32 0
  %18 = load ptr, ptr %17, align 8
  store ptr %18, ptr @H5LTyyin, align 8
  %19 = load ptr, ptr @yy_c_buf_p, align 8
  %20 = load i8, ptr %19, align 1
  store i8 %20, ptr @yy_hold_char, align 1
  ret void
}

; Function Attrs: nounwind uwtable
define ptr @H5LTyy_create_buffer(ptr noundef %0, i32 noundef %1) #0 {
  %3 = alloca ptr, align 8
  %4 = alloca i32, align 4
  %5 = alloca ptr, align 8
  store ptr %0, ptr %3, align 8
  store i32 %1, ptr %4, align 4
  %6 = call ptr @H5LTyyalloc(i64 noundef 64)
  store ptr %6, ptr %5, align 8
  %7 = load ptr, ptr %5, align 8
  %8 = icmp ne ptr %7, null
  br i1 %8, label %10, label %9

9:                                                ; preds = %2
  call void @yy_fatal_error(ptr noundef @.str.1) #12
  unreachable

10:                                               ; preds = %2
  %11 = load i32, ptr %4, align 4
  %12 = load ptr, ptr %5, align 8
  %13 = getelementptr inbounds %struct.yy_buffer_state, ptr %12, i32 0, i32 3
  store i32 %11, ptr %13, align 8
  %14 = load ptr, ptr %5, align 8
  %15 = getelementptr inbounds %struct.yy_buffer_state, ptr %14, i32 0, i32 3
  %16 = load i32, ptr %15, align 8
  %17 = add nsw i32 %16, 2
  %18 = sext i32 %17 to i64
  %19 = call ptr @H5LTyyalloc(i64 noundef %18)
  %20 = load ptr, ptr %5, align 8
  %21 = getelementptr inbounds %struct.yy_buffer_state, ptr %20, i32 0, i32 1
  store ptr %19, ptr %21, align 8
  %22 = load ptr, ptr %5, align 8
  %23 = getelementptr inbounds %struct.yy_buffer_state, ptr %22, i32 0, i32 1
  %24 = load ptr, ptr %23, align 8
  %25 = icmp ne ptr %24, null
  br i1 %25, label %27, label %26

26:                                               ; preds = %10
  call void @yy_fatal_error(ptr noundef @.str.1) #12
  unreachable

27:                                               ; preds = %10
  %28 = load ptr, ptr %5, align 8
  %29 = getelementptr inbounds %struct.yy_buffer_state, ptr %28, i32 0, i32 5
  store i32 1, ptr %29, align 8
  %30 = load ptr, ptr %5, align 8
  %31 = load ptr, ptr %3, align 8
  call void @H5LTyy_init_buffer(ptr noundef %30, ptr noundef %31)
  %32 = load ptr, ptr %5, align 8
  ret ptr %32
}

; Function Attrs: nounwind uwtable
define internal void @H5LTyyensure_buffer_stack() #0 {
  %1 = alloca i64, align 8
  %2 = alloca i64, align 8
  %3 = load ptr, ptr @yy_buffer_stack, align 8
  %4 = icmp ne ptr %3, null
  br i1 %4, label %17, label %5

5:                                                ; preds = %0
  store i64 1, ptr %1, align 8
  %6 = load i64, ptr %1, align 8
  %7 = mul i64 %6, 8
  %8 = call ptr @H5LTyyalloc(i64 noundef %7)
  store ptr %8, ptr @yy_buffer_stack, align 8
  %9 = load ptr, ptr @yy_buffer_stack, align 8
  %10 = icmp ne ptr %9, null
  br i1 %10, label %12, label %11

11:                                               ; preds = %5
  call void @yy_fatal_error(ptr noundef @.str.9) #12
  unreachable

12:                                               ; preds = %5
  %13 = load ptr, ptr @yy_buffer_stack, align 8
  %14 = load i64, ptr %1, align 8
  %15 = mul i64 %14, 8
  call void @llvm.memset.p0.i64(ptr align 8 %13, i8 0, i64 %15, i1 false)
  %16 = load i64, ptr %1, align 8
  store i64 %16, ptr @yy_buffer_stack_max, align 8
  store i64 0, ptr @yy_buffer_stack_top, align 8
  br label %40

17:                                               ; preds = %0
  %18 = load i64, ptr @yy_buffer_stack_top, align 8
  %19 = load i64, ptr @yy_buffer_stack_max, align 8
  %20 = sub i64 %19, 1
  %21 = icmp uge i64 %18, %20
  br i1 %21, label %22, label %40

22:                                               ; preds = %17
  store i64 8, ptr %2, align 8
  %23 = load i64, ptr @yy_buffer_stack_max, align 8
  %24 = load i64, ptr %2, align 8
  %25 = add i64 %23, %24
  store i64 %25, ptr %1, align 8
  %26 = load ptr, ptr @yy_buffer_stack, align 8
  %27 = load i64, ptr %1, align 8
  %28 = mul i64 %27, 8
  %29 = call ptr @H5LTyyrealloc(ptr noundef %26, i64 noundef %28)
  store ptr %29, ptr @yy_buffer_stack, align 8
  %30 = load ptr, ptr @yy_buffer_stack, align 8
  %31 = icmp ne ptr %30, null
  br i1 %31, label %33, label %32

32:                                               ; preds = %22
  call void @yy_fatal_error(ptr noundef @.str.9) #12
  unreachable

33:                                               ; preds = %22
  %34 = load ptr, ptr @yy_buffer_stack, align 8
  %35 = load i64, ptr @yy_buffer_stack_max, align 8
  %36 = getelementptr inbounds ptr, ptr %34, i64 %35
  %37 = load i64, ptr %2, align 8
  %38 = mul i64 %37, 8
  call void @llvm.memset.p0.i64(ptr align 8 %36, i8 0, i64 %38, i1 false)
  %39 = load i64, ptr %1, align 8
  store i64 %39, ptr @yy_buffer_stack_max, align 8
  br label %40

40:                                               ; preds = %33, %17, %12
  ret void
}

; Function Attrs: nounwind uwtable
define void @H5LTyyrestart(ptr noundef %0) #0 {
  %2 = alloca ptr, align 8
  store ptr %0, ptr %2, align 8
  %3 = load ptr, ptr @yy_buffer_stack, align 8
  %4 = icmp ne ptr %3, null
  br i1 %4, label %5, label %11

5:                                                ; preds = %1
  %6 = load ptr, ptr @yy_buffer_stack, align 8
  %7 = load i64, ptr @yy_buffer_stack_top, align 8
  %8 = getelementptr inbounds ptr, ptr %6, i64 %7
  %9 = load ptr, ptr %8, align 8
  %10 = icmp ne ptr %9, null
  br i1 %10, label %18, label %12

11:                                               ; preds = %1
  br i1 false, label %18, label %12

12:                                               ; preds = %11, %5
  call void @H5LTyyensure_buffer_stack()
  %13 = load ptr, ptr @H5LTyyin, align 8
  %14 = call ptr @H5LTyy_create_buffer(ptr noundef %13, i32 noundef 262144)
  %15 = load ptr, ptr @yy_buffer_stack, align 8
  %16 = load i64, ptr @yy_buffer_stack_top, align 8
  %17 = getelementptr inbounds ptr, ptr %15, i64 %16
  store ptr %14, ptr %17, align 8
  br label %18

18:                                               ; preds = %12, %11, %5
  %19 = load ptr, ptr @yy_buffer_stack, align 8
  %20 = icmp ne ptr %19, null
  br i1 %20, label %21, label %26

21:                                               ; preds = %18
  %22 = load ptr, ptr @yy_buffer_stack, align 8
  %23 = load i64, ptr @yy_buffer_stack_top, align 8
  %24 = getelementptr inbounds ptr, ptr %22, i64 %23
  %25 = load ptr, ptr %24, align 8
  br label %27

26:                                               ; preds = %18
  br label %27

27:                                               ; preds = %26, %21
  %28 = phi ptr [ %25, %21 ], [ null, %26 ]
  %29 = load ptr, ptr %2, align 8
  call void @H5LTyy_init_buffer(ptr noundef %28, ptr noundef %29)
  call void @H5LTyy_load_buffer_state()
  ret void
}