; Function Attrs: nounwind uwtable
define void @H5LTyyrestart(ptr noundef %0) local_unnamed_addr #0 {
  %2 = load ptr, ptr @yy_buffer_stack, align 8
  %.not = icmp eq ptr %2, null
  br i1 %.not, label %7, label %3

3:                                                ; preds = %1
  %4 = load i64, ptr @yy_buffer_stack_top, align 8
  %5 = getelementptr inbounds ptr, ptr %2, i64 %4
  %6 = load ptr, ptr %5, align 8
  %.not2 = icmp eq ptr %6, null
  br i1 %.not2, label %11, label %33

7:                                                ; preds = %1
  %8 = tail call noalias noundef dereferenceable_or_null(8) ptr @malloc(i64 noundef 8) #24
  store ptr %8, ptr @yy_buffer_stack, align 8
  %.not9.i = icmp eq ptr %8, null
  br i1 %.not9.i, label %9, label %10

9:                                                ; preds = %7
  tail call fastcc void @yy_fatal_error(ptr noundef nonnull @.str.9) #25
  unreachable

10:                                               ; preds = %7
  store i64 0, ptr %8, align 8
  store i64 1, ptr @yy_buffer_stack_max, align 8
  store i64 0, ptr @yy_buffer_stack_top, align 8
  br label %H5LTyyensure_buffer_stack.exit

11:                                               ; preds = %3
  %12 = load i64, ptr @yy_buffer_stack_max, align 8
  %13 = add i64 %12, -1
  %.not10.i = icmp ult i64 %4, %13
  br i1 %.not10.i, label %H5LTyyensure_buffer_stack.exit, label %14

14:                                               ; preds = %11
  %15 = add i64 %12, 8
  %16 = shl i64 %15, 3
  %17 = tail call noalias noundef ptr @realloc(ptr noundef nonnull %2, i64 noundef %16) #26
  store ptr %17, ptr @yy_buffer_stack, align 8
  %.not11.i = icmp eq ptr %17, null
  br i1 %.not11.i, label %18, label %19

18:                                               ; preds = %14
  tail call fastcc void @yy_fatal_error(ptr noundef nonnull @.str.9) #25
  unreachable

19:                                               ; preds = %14
  %20 = getelementptr inbounds ptr, ptr %17, i64 %12
  tail call void @llvm.memset.p0.i64(ptr noundef nonnull align 8 dereferenceable(64) %20, i8 0, i64 64, i1 false)
  store i64 %15, ptr @yy_buffer_stack_max, align 8
  br label %H5LTyyensure_buffer_stack.exit

H5LTyyensure_buffer_stack.exit:                   ; preds = %10, %11, %19
  %21 = load ptr, ptr @H5LTyyin, align 8
  %22 = tail call noalias noundef dereferenceable_or_null(64) ptr @malloc(i64 noundef 64) #24
  %.not.i4 = icmp eq ptr %22, null
  br i1 %.not.i4, label %23, label %24

23:                                               ; preds = %H5LTyyensure_buffer_stack.exit
  tail call fastcc void @yy_fatal_error(ptr noundef nonnull @.str.1) #25
  unreachable

24:                                               ; preds = %H5LTyyensure_buffer_stack.exit
  %25 = getelementptr inbounds i8, ptr %22, i64 24
  store i32 262144, ptr %25, align 8
  %26 = tail call noalias noundef dereferenceable_or_null(262146) ptr @malloc(i64 noundef 262146) #24
  %27 = getelementptr inbounds i8, ptr %22, i64 8
  store ptr %26, ptr %27, align 8
  %.not9.i5 = icmp eq ptr %26, null
  br i1 %.not9.i5, label %28, label %.thread6

28:                                               ; preds = %24
  tail call fastcc void @yy_fatal_error(ptr noundef nonnull @.str.1) #25
  unreachable

.thread6:                                         ; preds = %24
  %29 = getelementptr inbounds i8, ptr %22, i64 32
  store i32 1, ptr %29, align 8
  tail call fastcc void @H5LTyy_init_buffer(ptr noundef nonnull %22, ptr noundef %21)
  %30 = load ptr, ptr @yy_buffer_stack, align 8
  %31 = load i64, ptr @yy_buffer_stack_top, align 8
  %32 = getelementptr inbounds ptr, ptr %30, i64 %31
  store ptr %22, ptr %32, align 8
  br label %33

33:                                               ; preds = %.thread6, %3
  %34 = phi ptr [ %22, %.thread6 ], [ %6, %3 ]
  tail call fastcc void @H5LTyy_init_buffer(ptr noundef nonnull %34, ptr noundef %0)
  %35 = load ptr, ptr @yy_buffer_stack, align 8
  %36 = load i64, ptr @yy_buffer_stack_top, align 8
  %37 = getelementptr inbounds ptr, ptr %35, i64 %36
  %38 = load ptr, ptr %37, align 8
  %39 = getelementptr inbounds i8, ptr %38, i64 28
  %40 = load i32, ptr %39, align 4
  store i32 %40, ptr @yy_n_chars, align 4
  %41 = getelementptr inbounds i8, ptr %38, i64 16
  %42 = load ptr, ptr %41, align 8
  store ptr %42, ptr @yy_c_buf_p, align 8
  store ptr %42, ptr @H5LTyytext, align 8
  %43 = load ptr, ptr %37, align 8
  %44 = load ptr, ptr %43, align 8
  store ptr %44, ptr @H5LTyyin, align 8
  %45 = load i8, ptr %42, align 1
  store i8 %45, ptr @yy_hold_char, align 1
  ret void
}